target datalayout = "e-m:e-p270:32:32-p271:32:32-p272:64:64-i64:64-i128:128-f80:128-n8:16:32:64-S128"
target triple = "x86_64-unknown-linux-gnu"

%"class.rocksdb::Slice" = type { ptr, i64 }
%"struct.rocksdb::AdvancedColumnFamilyOptions" = type { i32, i32, i32, i64, i8, i64, double, ptr, double, i8, i64, %"class.std::shared_ptr", i32, i64, %"class.std::vector.10", i32, i32, i32, i64, i32, i8, i8, double, %"class.std::vector.15", i64, i8, i64, i64, i8, i8, [2 x i8], %"class.rocksdb::CompactionOptionsUniversal", %"struct.rocksdb::CompactionOptionsFIFO", i64, %"class.std::shared_ptr.25", %"class.std::vector.28", i64, i8, i8, i8, i8, i8, i64, i64, i64, i8, i8, i8, i64, i64, i8, i64, i64, i8, i8, double, double, i64, i32, %"class.std::shared_ptr.33", i8, i32, i8, i8, i32 }
%"class.std::vector.10" = type { %"struct.std::_Vector_base.11" }
%"struct.std::_Vector_base.11" = type { %"struct.std::_Vector_base<rocksdb::CompressionType, std::allocator<rocksdb::CompressionType>>::_Vector_impl" }
%"struct.std::_Vector_base<rocksdb::CompressionType, std::allocator<rocksdb::CompressionType>>::_Vector_impl" = type { %"struct.std::_Vector_base<rocksdb::CompressionType, std::allocator<rocksdb::CompressionType>>::_Vector_impl_data" }
%"struct.std::_Vector_base<rocksdb::CompressionType, std::allocator<rocksdb::CompressionType>>::_Vector_impl_data" = type { ptr, ptr, ptr }
%"class.std::vector.15" = type { %"struct.std::_Vector_base.16" }
%"struct.std::_Vector_base.16" = type { %"struct.std::_Vector_base<int, std::allocator<int>>::_Vector_impl" }
%"struct.std::_Vector_base<int, std::allocator<int>>::_Vector_impl" = type { %"struct.std::_Vector_base<int, std::allocator<int>>::_Vector_impl_data" }
%"struct.std::_Vector_base<int, std::allocator<int>>::_Vector_impl_data" = type { ptr, ptr, ptr }
%"class.rocksdb::CompactionOptionsUniversal" = type <{ i32, i32, i32, i32, i32, i32, i8, i8, [2 x i8] }>
%"struct.rocksdb::CompactionOptionsFIFO" = type { i64, i8, i64, %"class.std::vector.20" }
%"class.std::vector.20" = type { %"struct.std::_Vector_base.21" }
%"struct.std::_Vector_base.21" = type { %"struct.std::_Vector_base<rocksdb::FileTemperatureAge, std::allocator<rocksdb::FileTemperatureAge>>::_Vector_impl" }
%"struct.std::_Vector_base<rocksdb::FileTemperatureAge, std::allocator<rocksdb::FileTemperatureAge>>::_Vector_impl" = type { %"struct.std::_Vector_base<rocksdb::FileTemperatureAge, std::allocator<rocksdb::FileTemperatureAge>>::_Vector_impl_data" }
%"struct.std::_Vector_base<rocksdb::FileTemperatureAge, std::allocator<rocksdb::FileTemperatureAge>>::_Vector_impl_data" = type { ptr, ptr, ptr }
%"class.std::shared_ptr.25" = type { %"class.std::__shared_ptr.26" }
%"class.std::__shared_ptr.26" = type { ptr, %"class.std::__shared_count" }
%"class.std::__shared_count" = type { ptr }
%"class.std::vector.28" = type { %"struct.std::_Vector_base.29" }
%"struct.std::_Vector_base.29" = type { %"struct.std::_Vector_base<std::shared_ptr<rocksdb::TablePropertiesCollectorFactory>, std::allocator<std::shared_ptr<rocksdb::TablePropertiesCollectorFactory>>>::_Vector_impl" }
%"struct.std::_Vector_base<std::shared_ptr<rocksdb::TablePropertiesCollectorFactory>, std::allocator<std::shared_ptr<rocksdb::TablePropertiesCollectorFactory>>>::_Vector_impl" = type { %"struct.std::_Vector_base<std::shared_ptr<rocksdb::TablePropertiesCollectorFactory>, std::allocator<std::shared_ptr<rocksdb::TablePropertiesCollectorFactory>>>::_Vector_impl_data" }
%"struct.std::_Vector_base<std::shared_ptr<rocksdb::TablePropertiesCollectorFactory>, std::allocator<std::shared_ptr<rocksdb::TablePropertiesCollectorFactory>>>::_Vector_impl_data" = type { ptr, ptr, ptr }
%"class.std::shared_ptr.33" = type { %"class.std::__shared_ptr.34" }
%"class.std::__shared_ptr.34" = type { ptr, %"class.std::__shared_count" }
%"class.std::shared_ptr" = type { %"class.std::__shared_ptr" }
%"class.std::__shared_ptr" = type { ptr, %"class.std::__shared_count" }
%"class.rocksdb::Status" = type { i8, i8, i8, i8, i8, i8, %"class.std::unique_ptr.211" }
%"class.std::unique_ptr.211" = type { %"struct.std::__uniq_ptr_data.212" }
%"struct.std::__uniq_ptr_data.212" = type { %"class.std::__uniq_ptr_impl.213" }
%"class.std::__uniq_ptr_impl.213" = type { %"class.std::tuple.214" }
%"class.std::tuple.214" = type { %"struct.std::_Tuple_impl.215" }
%"struct.std::_Tuple_impl.215" = type { %"struct.std::_Head_base.218" }
%"struct.std::_Head_base.218" = type { ptr }

@.str = private unnamed_addr constant [1 x i8] zeroinitializer, align 1
@.str.45 = private unnamed_addr constant [126 x i8] c"In-place memtable updates (inplace_update_support) is not compatible with concurrent writes (allow_concurrent_memtable_write)\00", align 1
@.str.46 = private unnamed_addr constant [69 x i8] c"Memtable doesn't concurrent writes (allow_concurrent_memtable_write)\00", align 1

; Function Attrs: mustprogress nounwind uwtable
define linkonce_odr void @_ZNSt10_Head_baseILm1ESt14default_deleteIA_KcELb1EEC2Ev(ptr noundef nonnull align 1 dereferenceable(1) %this) unnamed_addr #1 comdat align 2 {
entry:
  %this.addr = alloca ptr, align 8
  store ptr %this, ptr %this.addr, align 8
  ret void
}

; Function Attrs: mustprogress nounwind uwtable
define linkonce_odr void @_ZNSt10_Head_baseILm0EPKcLb0EEC2Ev(ptr noundef nonnull align 8 dereferenceable(8) %this) unnamed_addr #1 comdat align 2 {
entry:
  %this.addr = alloca ptr, align 8
  store ptr %this, ptr %this.addr, align 8
  %this1 = load ptr, ptr %this.addr, align 8
  %_M_head_impl = getelementptr inbounds %"struct.std::_Head_base.218", ptr %this1, i32 0, i32 0
  store ptr null, ptr %_M_head_impl, align 8
  ret void
}

; Function Attrs: mustprogress uwtable
define linkonce_odr void @_ZNSt11_Tuple_implILm1EJSt14default_deleteIA_KcEEEC2Ev(ptr noundef nonnull align 1 dereferenceable(1) %this) unnamed_addr #0 comdat align 2 {
entry:
  %this.addr = alloca ptr, align 8
  store ptr %this, ptr %this.addr, align 8
  %this1 = load ptr, ptr %this.addr, align 8
  call void @_ZNSt10_Head_baseILm1ESt14default_deleteIA_KcELb1EEC2Ev(ptr noundef nonnull align 1 dereferenceable(1) %this1)
  ret void
}

; Function Attrs: noreturn nounwind uwtable
define linkonce_odr hidden void @__clang_call_terminate(ptr noundef %0) #5 comdat {
  %2 = call ptr @__cxa_begin_catch(ptr %0) #3
  call void @_ZSt9terminatev() #16
  unreachable
}

; Function Attrs: mustprogress uwtable
define linkonce_odr void @_ZNSt11_Tuple_implILm0EJPKcSt14default_deleteIA_S0_EEEC2Ev(ptr noundef nonnull align 8 dereferenceable(8) %this) unnamed_addr #0 comdat align 2 {
entry:
  %this.addr = alloca ptr, align 8
  store ptr %this, ptr %this.addr, align 8
  %this1 = load ptr, ptr %this.addr, align 8
  call void @_ZNSt11_Tuple_implILm1EJSt14default_deleteIA_KcEEEC2Ev(ptr noundef nonnull align 1 dereferenceable(1) %this1)
  call void @_ZNSt10_Head_baseILm0EPKcLb0EEC2Ev(ptr noundef nonnull align 8 dereferenceable(8) %this1)
  ret void
}

; Function Attrs: mustprogress nounwind uwtable
define linkonce_odr void @_ZNSt5tupleIJPKcSt14default_deleteIA_S0_EEEC2ILb1ETnNSt9enable_ifIXclsr17_TupleConstraintsIXT_ES1_S4_EE37__is_implicitly_default_constructibleEEbE4typeELb1EEEv(ptr noundef nonnull align 8 dereferenceable(8) %this) unnamed_addr #1 comdat align 2 personality ptr @__gxx_personality_v0 {
entry:
  %this.addr = alloca ptr, align 8
  store ptr %this, ptr %this.addr, align 8
  %this1 = load ptr, ptr %this.addr, align 8
  invoke void @_ZNSt11_Tuple_implILm0EJPKcSt14default_deleteIA_S0_EEEC2Ev(ptr noundef nonnull align 8 dereferenceable(8) %this1)
          to label %invoke.cont unwind label %terminate.lpad

invoke.cont:                                      ; preds = %entry
  ret void

terminate.lpad:                                   ; preds = %entry
  %0 = landingpad { ptr, i32 }
          catch ptr null
  %1 = extractvalue { ptr, i32 } %0, 0
  call void @__clang_call_terminate(ptr %1) #16
  unreachable
}

; Function Attrs: mustprogress nounwind uwtable
define linkonce_odr void @_ZNSt15__uniq_ptr_implIKcSt14default_deleteIA_S0_EEC2Ev(ptr noundef nonnull align 8 dereferenceable(8) %this) unnamed_addr #1 comdat align 2 {
entry:
  %this.addr = alloca ptr, align 8
  store ptr %this, ptr %this.addr, align 8
  %this1 = load ptr, ptr %this.addr, align 8
  %_M_t = getelementptr inbounds %"class.std::__uniq_ptr_impl.213", ptr %this1, i32 0, i32 0
  call void @_ZNSt5tupleIJPKcSt14default_deleteIA_S0_EEEC2ILb1ETnNSt9enable_ifIXclsr17_TupleConstraintsIXT_ES1_S4_EE37__is_implicitly_default_constructibleEEbE4typeELb1EEEv(ptr noundef nonnull align 8 dereferenceable(8) %_M_t) #3
  ret void
}

; Function Attrs: mustprogress nounwind uwtable
define linkonce_odr void @_ZNSt15__uniq_ptr_dataIKcSt14default_deleteIA_S0_ELb1ELb1EEC2Ev(ptr noundef nonnull align 8 dereferenceable(8) %this) unnamed_addr #1 comdat align 2 {
entry:
  %this.addr = alloca ptr, align 8
  store ptr %this, ptr %this.addr, align 8
  %this1 = load ptr, ptr %this.addr, align 8
  call void @_ZNSt15__uniq_ptr_implIKcSt14default_deleteIA_S0_EEC2Ev(ptr noundef nonnull align 8 dereferenceable(8) %this1) #3
  ret void
}

; Function Attrs: mustprogress nounwind uwtable
define linkonce_odr void @_ZNSt10unique_ptrIA_KcSt14default_deleteIS1_EEC2IS3_vEEDn(ptr noundef nonnull align 8 dereferenceable(8) %this, ptr %0) unnamed_addr #1 comdat align 2 {
entry:
  %this.addr = alloca ptr, align 8
  %.addr = alloca ptr, align 8
  store ptr %this, ptr %this.addr, align 8
  store ptr %0, ptr %.addr, align 8
  %this1 = load ptr, ptr %this.addr, align 8
  %_M_t = getelementptr inbounds %"class.std::unique_ptr.211", ptr %this1, i32 0, i32 0
  call void @llvm.memset.p0.i64(ptr align 8 %_M_t, i8 0, i64 8, i1 false)
  call void @_ZNSt15__uniq_ptr_dataIKcSt14default_deleteIA_S0_ELb1ELb1EEC2Ev(ptr noundef nonnull align 8 dereferenceable(8) %_M_t) #3
  ret void
}

; Function Attrs: mustprogress nounwind uwtable
define linkonce_odr noundef ptr @_ZNKSt12__shared_ptrIN7rocksdb18MemTableRepFactoryELN9__gnu_cxx12_Lock_policyE2EE3getEv(ptr noundef nonnull align 8 dereferenceable(16) %this) #1 comdat align 2 {
entry:
  %this.addr = alloca ptr, align 8
  store ptr %this, ptr %this.addr, align 8
  %this1 = load ptr, ptr %this.addr, align 8
  %_M_ptr = getelementptr inbounds %"class.std::__shared_ptr.26", ptr %this1, i32 0, i32 0
  %0 = load ptr, ptr %_M_ptr, align 8
  ret ptr %0
}

; Function Attrs: mustprogress nounwind uwtable
define linkonce_odr void @_ZN7rocksdb6StatusC2Ev(ptr noundef nonnull align 8 dereferenceable(16) %this) unnamed_addr #1 comdat align 2 {
entry:
  %this.addr = alloca ptr, align 8
  store ptr %this, ptr %this.addr, align 8
  %this1 = load ptr, ptr %this.addr, align 8
  %code_ = getelementptr inbounds %"class.rocksdb::Status", ptr %this1, i32 0, i32 0
  store i8 0, ptr %code_, align 8
  %subcode_ = getelementptr inbounds %"class.rocksdb::Status", ptr %this1, i32 0, i32 1
  store i8 0, ptr %subcode_, align 1
  %sev_ = getelementptr inbounds %"class.rocksdb::Status", ptr %this1, i32 0, i32 2
  store i8 0, ptr %sev_, align 2
  %retryable_ = getelementptr inbounds %"class.rocksdb::Status", ptr %this1, i32 0, i32 3
  store i8 0, ptr %retryable_, align 1
  %data_loss_ = getelementptr inbounds %"class.rocksdb::Status", ptr %this1, i32 0, i32 4
  store i8 0, ptr %data_loss_, align 4
  %scope_ = getelementptr inbounds %"class.rocksdb::Status", ptr %this1, i32 0, i32 5
  store i8 0, ptr %scope_, align 1
  %state_ = getelementptr inbounds %"class.rocksdb::Status", ptr %this1, i32 0, i32 6
  call void @_ZNSt10unique_ptrIA_KcSt14default_deleteIS1_EEC2IS3_vEEDn(ptr noundef nonnull align 8 dereferenceable(8) %state_, ptr null) #3
  ret void
}

; Function Attrs: mustprogress nounwind uwtable
define linkonce_odr noundef ptr @_ZNKSt19__shared_ptr_accessIN7rocksdb18MemTableRepFactoryELN9__gnu_cxx12_Lock_policyE2ELb0ELb0EE6_M_getEv(ptr noundef nonnull align 1 dereferenceable(1) %this) #1 comdat align 2 {
entry:
  %this.addr = alloca ptr, align 8
  store ptr %this, ptr %this.addr, align 8
  %this1 = load ptr, ptr %this.addr, align 8
  %call = call noundef ptr @_ZNKSt12__shared_ptrIN7rocksdb18MemTableRepFactoryELN9__gnu_cxx12_Lock_policyE2EE3getEv(ptr noundef nonnull align 8 dereferenceable(16) %this1) #3
  ret ptr %call
}

; Function Attrs: mustprogress uwtable
define linkonce_odr void @_ZN7rocksdb6StatusC2ENS0_4CodeERKNS_5SliceES4_(ptr noundef nonnull align 8 dereferenceable(16) %this, i8 noundef zeroext %_code, ptr noundef nonnull align 8 dereferenceable(16) %msg, ptr noundef nonnull align 8 dereferenceable(16) %msg2) unnamed_addr #0 comdat align 2 {
entry:
  %this.addr = alloca ptr, align 8
  %_code.addr = alloca i8, align 1
  %msg.addr = alloca ptr, align 8
  %msg2.addr = alloca ptr, align 8
  store ptr %this, ptr %this.addr, align 8
  store i8 %_code, ptr %_code.addr, align 1
  store ptr %msg, ptr %msg.addr, align 8
  store ptr %msg2, ptr %msg2.addr, align 8
  %this1 = load ptr, ptr %this.addr, align 8
  %0 = load i8, ptr %_code.addr, align 1
  %1 = load ptr, ptr %msg.addr, align 8
  %2 = load ptr, ptr %msg2.addr, align 8
  call void @_ZN7rocksdb6StatusC2ENS0_4CodeENS0_7SubCodeERKNS_5SliceES5_NS0_8SeverityE(ptr noundef nonnull align 8 dereferenceable(16) %this1, i8 noundef zeroext %0, i8 noundef zeroext 0, ptr noundef nonnull align 8 dereferenceable(16) %1, ptr noundef nonnull align 8 dereferenceable(16) %2, i8 noundef zeroext 0)
  ret void
}

; Function Attrs: mustprogress uwtable
define linkonce_odr void @_ZN7rocksdb6Status2OKEv(ptr noalias sret(%"class.rocksdb::Status") align 8 %agg.result) #0 comdat align 2 {
entry:
  %result.ptr = alloca ptr, align 8
  store ptr %agg.result, ptr %result.ptr, align 8
  call void @_ZN7rocksdb6StatusC2Ev(ptr noundef nonnull align 8 dereferenceable(16) %agg.result)
  ret void
}

; Function Attrs: mustprogress nounwind uwtable
define linkonce_odr noundef ptr @_ZNKSt19__shared_ptr_accessIN7rocksdb18MemTableRepFactoryELN9__gnu_cxx12_Lock_policyE2ELb0ELb0EEptEv(ptr noundef nonnull align 1 dereferenceable(1) %this) #1 comdat align 2 {
entry:
  %this.addr = alloca ptr, align 8
  store ptr %this, ptr %this.addr, align 8
  %this1 = load ptr, ptr %this.addr, align 8
  %call = call noundef ptr @_ZNKSt19__shared_ptr_accessIN7rocksdb18MemTableRepFactoryELN9__gnu_cxx12_Lock_policyE2ELb0ELb0EE6_M_getEv(ptr noundef nonnull align 1 dereferenceable(1) %this1) #3
  ret ptr %call
}

; Function Attrs: mustprogress uwtable
define linkonce_odr void @_ZN7rocksdb6Status15InvalidArgumentERKNS_5SliceES3_(ptr noalias sret(%"class.rocksdb::Status") align 8 %agg.result, ptr noundef nonnull align 8 dereferenceable(16) %msg, ptr noundef nonnull align 8 dereferenceable(16) %msg2) #0 comdat align 2 {
entry:
  %result.ptr = alloca ptr, align 8
  %msg.addr = alloca ptr, align 8
  %msg2.addr = alloca ptr, align 8
  store ptr %agg.result, ptr %result.ptr, align 8
  store ptr %msg, ptr %msg.addr, align 8
  store ptr %msg2, ptr %msg2.addr, align 8
  %0 = load ptr, ptr %msg.addr, align 8
  %1 = load ptr, ptr %msg2.addr, align 8
  call void @_ZN7rocksdb6StatusC2ENS0_4CodeERKNS_5SliceES4_(ptr noundef nonnull align 8 dereferenceable(16) %agg.result, i8 noundef zeroext 4, ptr noundef nonnull align 8 dereferenceable(16) %0, ptr noundef nonnull align 8 dereferenceable(16) %1)
  ret void
}

; Function Attrs: mustprogress nounwind uwtable
define linkonce_odr void @_ZN7rocksdb5SliceC2Ev(ptr noundef nonnull align 8 dereferenceable(16) %this) unnamed_addr #1 comdat align 2 {
entry:
  %this.addr = alloca ptr, align 8
  store ptr %this, ptr %this.addr, align 8
  %this1 = load ptr, ptr %this.addr, align 8
  %data_ = getelementptr inbounds %"class.rocksdb::Slice", ptr %this1, i32 0, i32 0
  store ptr @.str, ptr %data_, align 8
  %size_ = getelementptr inbounds %"class.rocksdb::Slice", ptr %this1, i32 0, i32 1
  store i64 0, ptr %size_, align 8
  ret void
}

; Function Attrs: mustprogress nounwind uwtable
define linkonce_odr void @_ZN7rocksdb5SliceC2EPKc(ptr noundef nonnull align 8 dereferenceable(16) %this, ptr noundef %s) unnamed_addr #1 comdat align 2 {
entry:
  %this.addr = alloca ptr, align 8
  %s.addr = alloca ptr, align 8
  store ptr %this, ptr %this.addr, align 8
  store ptr %s, ptr %s.addr, align 8
  %this1 = load ptr, ptr %this.addr, align 8
  %data_ = getelementptr inbounds %"class.rocksdb::Slice", ptr %this1, i32 0, i32 0
  %0 = load ptr, ptr %s.addr, align 8
  store ptr %0, ptr %data_, align 8
  %1 = load ptr, ptr %s.addr, align 8
  %cmp = icmp eq ptr %1, null
  br i1 %cmp, label %cond.true, label %cond.false

cond.true:                                        ; preds = %entry
  br label %cond.end

cond.false:                                       ; preds = %entry
  %2 = load ptr, ptr %s.addr, align 8
  %call = call i64 @strlen(ptr noundef %2) #20
  br label %cond.end

cond.end:                                         ; preds = %cond.false, %cond.true
  %cond = phi i64 [ 0, %cond.true ], [ %call, %cond.false ]
  %size_ = getelementptr inbounds %"class.rocksdb::Slice", ptr %this1, i32 0, i32 1
  store i64 %cond, ptr %size_, align 8
  ret void
}

; Function Attrs: mustprogress uwtable
define void @_ZN7rocksdb30CheckConcurrentWritesSupportedERKNS_19ColumnFamilyOptionsE(ptr noalias sret(%"class.rocksdb::Status") align 8 %agg.result, ptr noundef nonnull align 8 dereferenceable(820) %cf_options) #0 {
entry:
  %result.ptr = alloca ptr, align 8
  %cf_options.addr = alloca ptr, align 8
  %ref.tmp = alloca %"class.rocksdb::Slice", align 8
  %ref.tmp1 = alloca %"class.rocksdb::Slice", align 8
  %ref.tmp4 = alloca %"class.rocksdb::Slice", align 8
  %ref.tmp5 = alloca %"class.rocksdb::Slice", align 8
  store ptr %agg.result, ptr %result.ptr, align 8
  store ptr %cf_options, ptr %cf_options.addr, align 8
  %0 = load ptr, ptr %cf_options.addr, align 8
  %inplace_update_support = getelementptr inbounds %"struct.rocksdb::AdvancedColumnFamilyOptions", ptr %0, i32 0, i32 4
  %1 = load i8, ptr %inplace_update_support, align 8
  %tobool = trunc i8 %1 to i1
  br i1 %tobool, label %if.then, label %if.end

if.then:                                          ; preds = %entry
  call void @_ZN7rocksdb5SliceC2EPKc(ptr noundef nonnull align 8 dereferenceable(16) %ref.tmp, ptr noundef @.str.45)
  call void @_ZN7rocksdb5SliceC2Ev(ptr noundef nonnull align 8 dereferenceable(16) %ref.tmp1)
  call void @_ZN7rocksdb6Status15InvalidArgumentERKNS_5SliceES3_(ptr sret(%"class.rocksdb::Status") align 8 %agg.result, ptr noundef nonnull align 8 dereferenceable(16) %ref.tmp, ptr noundef nonnull align 8 dereferenceable(16) %ref.tmp1)
  br label %return

if.end:                                           ; preds = %entry
  %2 = load ptr, ptr %cf_options.addr, align 8
  %memtable_factory = getelementptr inbounds %"struct.rocksdb::AdvancedColumnFamilyOptions", ptr %2, i32 0, i32 34
  %call = call noundef ptr @_ZNKSt19__shared_ptr_accessIN7rocksdb18MemTableRepFactoryELN9__gnu_cxx12_Lock_policyE2ELb0ELb0EEptEv(ptr noundef nonnull align 1 dereferenceable(1) %memtable_factory) #3
  %vtable = load ptr, ptr %call, align 8
  %vfn = getelementptr inbounds ptr, ptr %vtable, i64 21
  %3 = load ptr, ptr %vfn, align 8
  %call2 = call noundef zeroext i1 %3(ptr noundef nonnull align 8 dereferenceable(32) %call)
  br i1 %call2, label %if.end6, label %if.then3

if.then3:                                         ; preds = %if.end
  call void @_ZN7rocksdb5SliceC2EPKc(ptr noundef nonnull align 8 dereferenceable(16) %ref.tmp4, ptr noundef @.str.46)
  call void @_ZN7rocksdb5SliceC2Ev(ptr noundef nonnull align 8 dereferenceable(16) %ref.tmp5)
  call void @_ZN7rocksdb6Status15InvalidArgumentERKNS_5SliceES3_(ptr sret(%"class.rocksdb::Status") align 8 %agg.result, ptr noundef nonnull align 8 dereferenceable(16) %ref.tmp4, ptr noundef nonnull align 8 dereferenceable(16) %ref.tmp5)
  br label %return

if.end6:                                          ; preds = %if.end
  call void @_ZN7rocksdb6Status2OKEv(ptr sret(%"class.rocksdb::Status") align 8 %agg.result)
  br label %return

return:                                           ; preds = %if.end6, %if.then3, %if.then
  ret void
}