; Function Attrs: mustprogress uwtable
define void @_ZN7rocksdb30CheckConcurrentWritesSupportedERKNS_19ColumnFamilyOptionsE(ptr noalias sret(%"class.rocksdb::Status") align 8 %agg.result, ptr nocapture noundef nonnull readonly align 8 dereferenceable(820) %cf_options) local_unnamed_addr #7 personality ptr @__gxx_personality_v0 {
entry:
  %ref.tmp = alloca %"class.rocksdb::Slice", align 8
  %ref.tmp1 = alloca %"class.rocksdb::Slice", align 8
  %ref.tmp4 = alloca %"class.rocksdb::Slice", align 8
  %ref.tmp5 = alloca %"class.rocksdb::Slice", align 8
  %inplace_update_support = getelementptr inbounds i8, ptr %cf_options, i64 24
  %0 = load i8, ptr %inplace_update_support, align 8
  %1 = and i8 %0, 1
  %tobool.not = icmp eq i8 %1, 0
  br i1 %tobool.not, label %if.end, label %if.then

if.then:                                          ; preds = %entry
  store ptr @.str.45, ptr %ref.tmp, align 8
  %size_.i = getelementptr inbounds i8, ptr %ref.tmp, i64 8
  store i64 125, ptr %size_.i, align 8
  store ptr @.str, ptr %ref.tmp1, align 8
  %size_.i2 = getelementptr inbounds i8, ptr %ref.tmp1, i64 8
  store i64 0, ptr %size_.i2, align 8
  call void @_ZN7rocksdb6StatusC2ENS0_4CodeENS0_7SubCodeERKNS_5SliceES5_NS0_8SeverityE(ptr noundef nonnull align 8 dereferenceable(16) %agg.result, i8 noundef zeroext 4, i8 noundef zeroext 0, ptr noundef nonnull align 8 dereferenceable(16) %ref.tmp, ptr noundef nonnull align 8 dereferenceable(16) %ref.tmp1, i8 noundef zeroext 0)
  br label %return

if.end:                                           ; preds = %entry
  %memtable_factory = getelementptr inbounds i8, ptr %cf_options, i64 320
  %2 = load ptr, ptr %memtable_factory, align 8
  %vtable = load ptr, ptr %2, align 8
  %vfn = getelementptr inbounds i8, ptr %vtable, i64 168
  %3 = load ptr, ptr %vfn, align 8
  %call2 = tail call noundef zeroext i1 %3(ptr noundef nonnull align 8 dereferenceable(32) %2)
  br i1 %call2, label %if.end6, label %if.then3

if.then3:                                         ; preds = %if.end
  store ptr @.str.46, ptr %ref.tmp4, align 8
  %size_.i4 = getelementptr inbounds i8, ptr %ref.tmp4, i64 8
  store i64 68, ptr %size_.i4, align 8
  store ptr @.str, ptr %ref.tmp5, align 8
  %size_.i5 = getelementptr inbounds i8, ptr %ref.tmp5, i64 8
  store i64 0, ptr %size_.i5, align 8
  call void @_ZN7rocksdb6StatusC2ENS0_4CodeENS0_7SubCodeERKNS_5SliceES5_NS0_8SeverityE(ptr noundef nonnull align 8 dereferenceable(16) %agg.result, i8 noundef zeroext 4, i8 noundef zeroext 0, ptr noundef nonnull align 8 dereferenceable(16) %ref.tmp4, ptr noundef nonnull align 8 dereferenceable(16) %ref.tmp5, i8 noundef zeroext 0)
  br label %return

if.end6:                                          ; preds = %if.end
  %state_.i.i = getelementptr inbounds i8, ptr %agg.result, i64 8
  store ptr null, ptr %state_.i.i, align 8, !alias.scope !32
  tail call void @llvm.memset.p0.i64(ptr noundef nonnull align 8 dereferenceable(6) %agg.result, i8 0, i64 6, i1 false), !alias.scope !32
  br label %return

return:                                           ; preds = %if.end6, %if.then3, %if.then
  ret void
}